target datalayout = "e-m:e-p270:32:32-p271:32:32-p272:64:64-i64:64-i128:128-f80:128-n8:16:32:64-S128"
target triple = "x86_64-pc-linux-gnu"

; Function Attrs: nounwind sspstrong uwtable
define internal i32 @utf32be_is_mbc_newline(ptr noundef %0, ptr noundef %1, ptr noundef %2) #0 {
  %4 = alloca i32, align 4
  %5 = alloca ptr, align 8
  %6 = alloca ptr, align 8
  %7 = alloca ptr, align 8
  store ptr %0, ptr %5, align 8, !tbaa !13
  store ptr %1, ptr %6, align 8, !tbaa !13
  store ptr %2, ptr %7, align 8, !tbaa !14
  %8 = load ptr, ptr %5, align 8, !tbaa !13
  %9 = getelementptr inbounds i8, ptr %8, i64 3
  %10 = load ptr, ptr %6, align 8, !tbaa !13
  %11 = icmp ult ptr %9, %10
  br i1 %11, label %12, label %37

12:                                               ; preds = %3
  %13 = load ptr, ptr %5, align 8, !tbaa !13
  %14 = getelementptr inbounds i8, ptr %13, i64 3
  %15 = load i8, ptr %14, align 1, !tbaa !17
  %16 = zext i8 %15 to i32
  %17 = icmp eq i32 %16, 10
  br i1 %17, label %18, label %36

18:                                               ; preds = %12
  %19 = load ptr, ptr %5, align 8, !tbaa !13
  %20 = getelementptr inbounds i8, ptr %19, i64 2
  %21 = load i8, ptr %20, align 1, !tbaa !17
  %22 = zext i8 %21 to i32
  %23 = icmp eq i32 %22, 0
  br i1 %23, label %24, label %36

24:                                               ; preds = %18
  %25 = load ptr, ptr %5, align 8, !tbaa !13
  %26 = getelementptr inbounds i8, ptr %25, i64 1
  %27 = load i8, ptr %26, align 1, !tbaa !17
  %28 = zext i8 %27 to i32
  %29 = icmp eq i32 %28, 0
  br i1 %29, label %30, label %36

30:                                               ; preds = %24
  %31 = load ptr, ptr %5, align 8, !tbaa !13
  %32 = load i8, ptr %31, align 1, !tbaa !17
  %33 = zext i8 %32 to i32
  %34 = icmp eq i32 %33, 0
  br i1 %34, label %35, label %36

35:                                               ; preds = %30
  store i32 1, ptr %4, align 4
  br label %38

36:                                               ; preds = %30, %24, %18, %12
  br label %37

37:                                               ; preds = %36, %3
  store i32 0, ptr %4, align 4
  br label %38

38:                                               ; preds = %37, %35
  %39 = load i32, ptr %4, align 4
  ret i32 %39
}